target datalayout = "e-m:e-p270:32:32-p271:32:32-p272:64:64-i64:64-i128:128-f80:128-n8:16:32:64-S128"
target triple = "x86_64-pc-linux-gnu"

%struct.VP8LBackwardRefs = type { i32, i32, ptr, ptr, ptr, ptr }

; Function Attrs: nounwind uwtable
define hidden void @VP8LBackwardRefsInit(ptr noundef %0, i32 noundef %1) #0 {
  %3 = alloca ptr, align 8
  %4 = alloca i32, align 4
  store ptr %0, ptr %3, align 8, !tbaa !8
  store i32 %1, ptr %4, align 4, !tbaa !3
  %5 = load ptr, ptr %3, align 8, !tbaa !8
  call void @llvm.memset.p0.i64(ptr align 8 %5, i8 0, i64 40, i1 false)
  %6 = load ptr, ptr %3, align 8, !tbaa !8
  %7 = getelementptr inbounds nuw %struct.VP8LBackwardRefs, ptr %6, i32 0, i32 2
  %8 = load ptr, ptr %3, align 8, !tbaa !8
  %9 = getelementptr inbounds nuw %struct.VP8LBackwardRefs, ptr %8, i32 0, i32 3
  store ptr %7, ptr %9, align 8, !tbaa !11
  %10 = load i32, ptr %4, align 4, !tbaa !3
  %11 = icmp slt i32 %10, 256
  br i1 %11, label %12, label %13

12:                                               ; preds = %2
  br label %15

13:                                               ; preds = %2
  %14 = load i32, ptr %4, align 4, !tbaa !3
  br label %15

15:                                               ; preds = %13, %12
  %16 = phi i32 [ 256, %12 ], [ %14, %13 ]
  %17 = load ptr, ptr %3, align 8, !tbaa !8
  %18 = getelementptr inbounds nuw %struct.VP8LBackwardRefs, ptr %17, i32 0, i32 0
  store i32 %16, ptr %18, align 8, !tbaa !23
  ret void
}