; Function Attrs: mustprogress nofree norecurse nosync nounwind willreturn memory(argmem: write) uwtable
define hidden void @VP8LBackwardRefsInit(ptr noundef initializes((0, 40)) %0, i32 noundef %1) local_unnamed_addr #5 {
  tail call void @llvm.memset.p0.i64(ptr noundef nonnull align 8 dereferenceable(40) %0, i8 0, i64 40, i1 false)
  %3 = getelementptr inbounds nuw i8, ptr %0, i64 8
  %4 = getelementptr inbounds nuw i8, ptr %0, i64 16
  store ptr %3, ptr %4, align 8, !tbaa !6
  %5 = tail call i32 @llvm.smax.i32(i32 %1, i32 256)
  store i32 %5, ptr %0, align 8, !tbaa !20
  ret void
}